target datalayout = "e-m:e-p270:32:32-p271:32:32-p272:64:64-i64:64-i128:128-f80:128-n8:16:32:64-S128"
target triple = "x86_64-unknown-linux-gnu"

%"class.std::__cxx11::basic_string" = type { %"struct.std::__cxx11::basic_string<char>::_Alloc_hider", i64, %union.anon }
%"struct.std::__cxx11::basic_string<char>::_Alloc_hider" = type { ptr }
%union.anon = type { i64, [8 x i8] }
%"struct.pbrt::FileLoc" = type { %"class.std::basic_string_view", i32, i32 }
%"class.std::basic_string_view" = type { i64, ptr }

@.str.14 = private unnamed_addr constant [4 x i8] c"%f \00", align 1
@.str.93 = private unnamed_addr constant [21 x i8] c"%sConcatTransform [ \00", align 1
@.str.94 = private unnamed_addr constant [4 x i8] c" ]\0A\00", align 1
@stdout = external global ptr, align 8

; Function Attrs: mustprogress uwtable
define linkonce_odr dso_local void @_ZN4pbrt12StringPrintfIJEEENSt7__cxx1112basic_stringIcSt11char_traitsIcESaIcEEEPKcDpOT_(ptr noalias sret(%"class.std::__cxx11::basic_string") align 8 %agg.result, ptr noundef %fmt) #1 comdat personality ptr @__gxx_personality_v0 {
entry:
  %result.ptr = alloca ptr, align 8
  %fmt.addr = alloca ptr, align 8
  %nrvo = alloca i1, align 1
  %exn.slot = alloca ptr, align 8
  %ehselector.slot = alloca i32, align 4
  store ptr %agg.result, ptr %result.ptr, align 8
  store ptr %fmt, ptr %fmt.addr, align 8
  store i1 false, ptr %nrvo, align 1
  call void @_ZNSt7__cxx1112basic_stringIcSt11char_traitsIcESaIcEEC1Ev(ptr noundef nonnull align 8 dereferenceable(32) %agg.result) #5
  %0 = load ptr, ptr %fmt.addr, align 8
  invoke void @_ZN4pbrt6detail21stringPrintfRecursiveEPNSt7__cxx1112basic_stringIcSt11char_traitsIcESaIcEEEPKc(ptr noundef %agg.result, ptr noundef %0)
          to label %invoke.cont unwind label %lpad

invoke.cont:                                      ; preds = %entry
  store i1 true, ptr %nrvo, align 1
  %nrvo.val = load i1, ptr %nrvo, align 1
  br i1 %nrvo.val, label %nrvo.skipdtor, label %nrvo.unused

lpad:                                             ; preds = %entry
  %1 = landingpad { ptr, i32 }
          cleanup
  %2 = extractvalue { ptr, i32 } %1, 0
  store ptr %2, ptr %exn.slot, align 8
  %3 = extractvalue { ptr, i32 } %1, 1
  store i32 %3, ptr %ehselector.slot, align 4
  call void @_ZNSt7__cxx1112basic_stringIcSt11char_traitsIcESaIcEED1Ev(ptr noundef nonnull align 8 dereferenceable(32) %agg.result) #5
  br label %eh.resume

nrvo.unused:                                      ; preds = %invoke.cont
  call void @_ZNSt7__cxx1112basic_stringIcSt11char_traitsIcESaIcEED1Ev(ptr noundef nonnull align 8 dereferenceable(32) %agg.result) #5
  br label %nrvo.skipdtor

nrvo.skipdtor:                                    ; preds = %nrvo.unused, %invoke.cont
  ret void

eh.resume:                                        ; preds = %lpad
  %exn = load ptr, ptr %exn.slot, align 8
  %sel = load i32, ptr %ehselector.slot, align 4
  %lpad.val = insertvalue { ptr, i32 } poison, ptr %exn, 0
  %lpad.val1 = insertvalue { ptr, i32 } %lpad.val, i32 %sel, 1
  resume { ptr, i32 } %lpad.val1
}

; Function Attrs: mustprogress uwtable
define linkonce_odr dso_local void @_ZN4pbrt12StringPrintfIJRfEEENSt7__cxx1112basic_stringIcSt11char_traitsIcESaIcEEEPKcDpOT_(ptr noalias sret(%"class.std::__cxx11::basic_string") align 8 %agg.result, ptr noundef %fmt, ptr noundef nonnull align 4 dereferenceable(4) %args) #1 comdat personality ptr @__gxx_personality_v0 {
entry:
  %result.ptr = alloca ptr, align 8
  %fmt.addr = alloca ptr, align 8
  %args.addr = alloca ptr, align 8
  %nrvo = alloca i1, align 1
  %exn.slot = alloca ptr, align 8
  %ehselector.slot = alloca i32, align 4
  store ptr %agg.result, ptr %result.ptr, align 8
  store ptr %fmt, ptr %fmt.addr, align 8
  store ptr %args, ptr %args.addr, align 8
  store i1 false, ptr %nrvo, align 1
  call void @_ZNSt7__cxx1112basic_stringIcSt11char_traitsIcESaIcEEC1Ev(ptr noundef nonnull align 8 dereferenceable(32) %agg.result) #5
  %0 = load ptr, ptr %fmt.addr, align 8
  %1 = load ptr, ptr %args.addr, align 8
  invoke void @_ZN4pbrt6detail21stringPrintfRecursiveIRfJEEEvPNSt7__cxx1112basic_stringIcSt11char_traitsIcESaIcEEEPKcOT_DpOT0_(ptr noundef %agg.result, ptr noundef %0, ptr noundef nonnull align 4 dereferenceable(4) %1)
          to label %invoke.cont unwind label %lpad

invoke.cont:                                      ; preds = %entry
  store i1 true, ptr %nrvo, align 1
  %nrvo.val = load i1, ptr %nrvo, align 1
  br i1 %nrvo.val, label %nrvo.skipdtor, label %nrvo.unused

lpad:                                             ; preds = %entry
  %2 = landingpad { ptr, i32 }
          cleanup
  %3 = extractvalue { ptr, i32 } %2, 0
  store ptr %3, ptr %exn.slot, align 8
  %4 = extractvalue { ptr, i32 } %2, 1
  store i32 %4, ptr %ehselector.slot, align 4
  call void @_ZNSt7__cxx1112basic_stringIcSt11char_traitsIcESaIcEED1Ev(ptr noundef nonnull align 8 dereferenceable(32) %agg.result) #5
  br label %eh.resume

nrvo.unused:                                      ; preds = %invoke.cont
  call void @_ZNSt7__cxx1112basic_stringIcSt11char_traitsIcESaIcEED1Ev(ptr noundef nonnull align 8 dereferenceable(32) %agg.result) #5
  br label %nrvo.skipdtor

nrvo.skipdtor:                                    ; preds = %nrvo.unused, %invoke.cont
  ret void

eh.resume:                                        ; preds = %lpad
  %exn = load ptr, ptr %exn.slot, align 8
  %sel = load i32, ptr %ehselector.slot, align 4
  %lpad.val = insertvalue { ptr, i32 } poison, ptr %exn, 0
  %lpad.val1 = insertvalue { ptr, i32 } %lpad.val, i32 %sel, 1
  resume { ptr, i32 } %lpad.val1
}

; Function Attrs: mustprogress uwtable
define linkonce_odr dso_local void @_ZN4pbrt12StringPrintfIJNSt7__cxx1112basic_stringIcSt11char_traitsIcESaIcEEEEEES6_PKcDpOT_(ptr noalias sret(%"class.std::__cxx11::basic_string") align 8 %agg.result, ptr noundef %fmt, ptr noundef nonnull align 8 dereferenceable(32) %args) #1 comdat personality ptr @__gxx_personality_v0 {
entry:
  %result.ptr = alloca ptr, align 8
  %fmt.addr = alloca ptr, align 8
  %args.addr = alloca ptr, align 8
  %nrvo = alloca i1, align 1
  %exn.slot = alloca ptr, align 8
  %ehselector.slot = alloca i32, align 4
  store ptr %agg.result, ptr %result.ptr, align 8
  store ptr %fmt, ptr %fmt.addr, align 8
  store ptr %args, ptr %args.addr, align 8
  store i1 false, ptr %nrvo, align 1
  call void @_ZNSt7__cxx1112basic_stringIcSt11char_traitsIcESaIcEEC1Ev(ptr noundef nonnull align 8 dereferenceable(32) %agg.result) #5
  %0 = load ptr, ptr %fmt.addr, align 8
  %1 = load ptr, ptr %args.addr, align 8
  invoke void @_ZN4pbrt6detail21stringPrintfRecursiveINSt7__cxx1112basic_stringIcSt11char_traitsIcESaIcEEEJEEEvPS7_PKcOT_DpOT0_(ptr noundef %agg.result, ptr noundef %0, ptr noundef nonnull align 8 dereferenceable(32) %1)
          to label %invoke.cont unwind label %lpad

invoke.cont:                                      ; preds = %entry
  store i1 true, ptr %nrvo, align 1
  %nrvo.val = load i1, ptr %nrvo, align 1
  br i1 %nrvo.val, label %nrvo.skipdtor, label %nrvo.unused

lpad:                                             ; preds = %entry
  %2 = landingpad { ptr, i32 }
          cleanup
  %3 = extractvalue { ptr, i32 } %2, 0
  store ptr %3, ptr %exn.slot, align 8
  %4 = extractvalue { ptr, i32 } %2, 1
  store i32 %4, ptr %ehselector.slot, align 4
  call void @_ZNSt7__cxx1112basic_stringIcSt11char_traitsIcESaIcEED1Ev(ptr noundef nonnull align 8 dereferenceable(32) %agg.result) #5
  br label %eh.resume

nrvo.unused:                                      ; preds = %invoke.cont
  call void @_ZNSt7__cxx1112basic_stringIcSt11char_traitsIcESaIcEED1Ev(ptr noundef nonnull align 8 dereferenceable(32) %agg.result) #5
  br label %nrvo.skipdtor

nrvo.skipdtor:                                    ; preds = %nrvo.unused, %invoke.cont
  ret void

eh.resume:                                        ; preds = %lpad
  %exn = load ptr, ptr %exn.slot, align 8
  %sel = load i32, ptr %ehselector.slot, align 4
  %lpad.val = insertvalue { ptr, i32 } poison, ptr %exn, 0
  %lpad.val1 = insertvalue { ptr, i32 } %lpad.val, i32 %sel, 1
  resume { ptr, i32 } %lpad.val1
}

; Function Attrs: mustprogress uwtable
define linkonce_odr dso_local void @_ZN4pbrt6PrintfIJEEEvPKcDpOT_(ptr noundef %fmt) #1 comdat personality ptr @__gxx_personality_v0 {
entry:
  %fmt.addr = alloca ptr, align 8
  %s = alloca %"class.std::__cxx11::basic_string", align 8
  %exn.slot = alloca ptr, align 8
  %ehselector.slot = alloca i32, align 4
  store ptr %fmt, ptr %fmt.addr, align 8
  %0 = load ptr, ptr %fmt.addr, align 8
  call void @_ZN4pbrt12StringPrintfIJEEENSt7__cxx1112basic_stringIcSt11char_traitsIcESaIcEEEPKcDpOT_(ptr sret(%"class.std::__cxx11::basic_string") align 8 %s, ptr noundef %0)
  %call = call noundef ptr @_ZNKSt7__cxx1112basic_stringIcSt11char_traitsIcESaIcEE5c_strEv(ptr noundef nonnull align 8 dereferenceable(32) %s) #5
  %1 = load ptr, ptr @stdout, align 8
  %call1 = invoke i32 @fputs(ptr noundef %call, ptr noundef %1)
          to label %invoke.cont unwind label %lpad

invoke.cont:                                      ; preds = %entry
  call void @_ZNSt7__cxx1112basic_stringIcSt11char_traitsIcESaIcEED1Ev(ptr noundef nonnull align 8 dereferenceable(32) %s) #5
  ret void

lpad:                                             ; preds = %entry
  %2 = landingpad { ptr, i32 }
          cleanup
  %3 = extractvalue { ptr, i32 } %2, 0
  store ptr %3, ptr %exn.slot, align 8
  %4 = extractvalue { ptr, i32 } %2, 1
  store i32 %4, ptr %ehselector.slot, align 4
  call void @_ZNSt7__cxx1112basic_stringIcSt11char_traitsIcESaIcEED1Ev(ptr noundef nonnull align 8 dereferenceable(32) %s) #5
  br label %eh.resume

eh.resume:                                        ; preds = %lpad
  %exn = load ptr, ptr %exn.slot, align 8
  %sel = load i32, ptr %ehselector.slot, align 4
  %lpad.val = insertvalue { ptr, i32 } poison, ptr %exn, 0
  %lpad.val2 = insertvalue { ptr, i32 } %lpad.val, i32 %sel, 1
  resume { ptr, i32 } %lpad.val2
}

; Function Attrs: mustprogress uwtable
define linkonce_odr dso_local void @_ZN4pbrt6PrintfIJRfEEEvPKcDpOT_(ptr noundef %fmt, ptr noundef nonnull align 4 dereferenceable(4) %args) #1 comdat personality ptr @__gxx_personality_v0 {
entry:
  %fmt.addr = alloca ptr, align 8
  %args.addr = alloca ptr, align 8
  %s = alloca %"class.std::__cxx11::basic_string", align 8
  %exn.slot = alloca ptr, align 8
  %ehselector.slot = alloca i32, align 4
  store ptr %fmt, ptr %fmt.addr, align 8
  store ptr %args, ptr %args.addr, align 8
  %0 = load ptr, ptr %fmt.addr, align 8
  %1 = load ptr, ptr %args.addr, align 8
  call void @_ZN4pbrt12StringPrintfIJRfEEENSt7__cxx1112basic_stringIcSt11char_traitsIcESaIcEEEPKcDpOT_(ptr sret(%"class.std::__cxx11::basic_string") align 8 %s, ptr noundef %0, ptr noundef nonnull align 4 dereferenceable(4) %1)
  %call = call noundef ptr @_ZNKSt7__cxx1112basic_stringIcSt11char_traitsIcESaIcEE5c_strEv(ptr noundef nonnull align 8 dereferenceable(32) %s) #5
  %2 = load ptr, ptr @stdout, align 8
  %call1 = invoke i32 @fputs(ptr noundef %call, ptr noundef %2)
          to label %invoke.cont unwind label %lpad

invoke.cont:                                      ; preds = %entry
  call void @_ZNSt7__cxx1112basic_stringIcSt11char_traitsIcESaIcEED1Ev(ptr noundef nonnull align 8 dereferenceable(32) %s) #5
  ret void

lpad:                                             ; preds = %entry
  %3 = landingpad { ptr, i32 }
          cleanup
  %4 = extractvalue { ptr, i32 } %3, 0
  store ptr %4, ptr %exn.slot, align 8
  %5 = extractvalue { ptr, i32 } %3, 1
  store i32 %5, ptr %ehselector.slot, align 4
  call void @_ZNSt7__cxx1112basic_stringIcSt11char_traitsIcESaIcEED1Ev(ptr noundef nonnull align 8 dereferenceable(32) %s) #5
  br label %eh.resume

eh.resume:                                        ; preds = %lpad
  %exn = load ptr, ptr %exn.slot, align 8
  %sel = load i32, ptr %ehselector.slot, align 4
  %lpad.val = insertvalue { ptr, i32 } poison, ptr %exn, 0
  %lpad.val2 = insertvalue { ptr, i32 } %lpad.val, i32 %sel, 1
  resume { ptr, i32 } %lpad.val2
}

; Function Attrs: mustprogress uwtable
define linkonce_odr dso_local void @_ZN4pbrt6PrintfIJNSt7__cxx1112basic_stringIcSt11char_traitsIcESaIcEEEEEEvPKcDpOT_(ptr noundef %fmt, ptr noundef nonnull align 8 dereferenceable(32) %args) #1 comdat personality ptr @__gxx_personality_v0 {
entry:
  %fmt.addr = alloca ptr, align 8
  %args.addr = alloca ptr, align 8
  %s = alloca %"class.std::__cxx11::basic_string", align 8
  %exn.slot = alloca ptr, align 8
  %ehselector.slot = alloca i32, align 4
  store ptr %fmt, ptr %fmt.addr, align 8
  store ptr %args, ptr %args.addr, align 8
  %0 = load ptr, ptr %fmt.addr, align 8
  %1 = load ptr, ptr %args.addr, align 8
  call void @_ZN4pbrt12StringPrintfIJNSt7__cxx1112basic_stringIcSt11char_traitsIcESaIcEEEEEES6_PKcDpOT_(ptr sret(%"class.std::__cxx11::basic_string") align 8 %s, ptr noundef %0, ptr noundef nonnull align 8 dereferenceable(32) %1)
  %call = call noundef ptr @_ZNKSt7__cxx1112basic_stringIcSt11char_traitsIcESaIcEE5c_strEv(ptr noundef nonnull align 8 dereferenceable(32) %s) #5
  %2 = load ptr, ptr @stdout, align 8
  %call1 = invoke i32 @fputs(ptr noundef %call, ptr noundef %2)
          to label %invoke.cont unwind label %lpad

invoke.cont:                                      ; preds = %entry
  call void @_ZNSt7__cxx1112basic_stringIcSt11char_traitsIcESaIcEED1Ev(ptr noundef nonnull align 8 dereferenceable(32) %s) #5
  ret void

lpad:                                             ; preds = %entry
  %3 = landingpad { ptr, i32 }
          cleanup
  %4 = extractvalue { ptr, i32 } %3, 0
  store ptr %4, ptr %exn.slot, align 8
  %5 = extractvalue { ptr, i32 } %3, 1
  store i32 %5, ptr %ehselector.slot, align 4
  call void @_ZNSt7__cxx1112basic_stringIcSt11char_traitsIcESaIcEED1Ev(ptr noundef nonnull align 8 dereferenceable(32) %s) #5
  br label %eh.resume

eh.resume:                                        ; preds = %lpad
  %exn = load ptr, ptr %exn.slot, align 8
  %sel = load i32, ptr %ehselector.slot, align 4
  %lpad.val = insertvalue { ptr, i32 } poison, ptr %exn, 0
  %lpad.val2 = insertvalue { ptr, i32 } %lpad.val, i32 %sel, 1
  resume { ptr, i32 } %lpad.val2
}

; Function Attrs: mustprogress uwtable
define dso_local void @_ZN4pbrt22FormattingParserTarget15ConcatTransformEPfNS_7FileLocE(ptr noundef nonnull align 8 dereferenceable(216) %this, ptr noundef %transform, ptr noundef byval(%"struct.pbrt::FileLoc") align 8 %loc) unnamed_addr #1 align 2 personality ptr @__gxx_personality_v0 {
entry:
  %this.addr = alloca ptr, align 8
  %transform.addr = alloca ptr, align 8
  %ref.tmp = alloca %"class.std::__cxx11::basic_string", align 8
  %exn.slot = alloca ptr, align 8
  %ehselector.slot = alloca i32, align 4
  %i = alloca i32, align 4
  store ptr %this, ptr %this.addr, align 8
  store ptr %transform, ptr %transform.addr, align 8
  %this1 = load ptr, ptr %this.addr, align 8
  call void @_ZNK4pbrt22FormattingParserTarget6indentB5cxx11Ei(ptr sret(%"class.std::__cxx11::basic_string") align 8 %ref.tmp, ptr noundef nonnull align 8 dereferenceable(216) %this1, i32 noundef 0)
  invoke void @_ZN4pbrt6PrintfIJNSt7__cxx1112basic_stringIcSt11char_traitsIcESaIcEEEEEEvPKcDpOT_(ptr noundef @.str.93, ptr noundef nonnull align 8 dereferenceable(32) %ref.tmp)
          to label %invoke.cont unwind label %lpad

invoke.cont:                                      ; preds = %entry
  call void @_ZNSt7__cxx1112basic_stringIcSt11char_traitsIcESaIcEED1Ev(ptr noundef nonnull align 8 dereferenceable(32) %ref.tmp) #5
  store i32 0, ptr %i, align 4
  br label %for.cond

for.cond:                                         ; preds = %for.inc, %invoke.cont
  %0 = load i32, ptr %i, align 4
  %cmp = icmp slt i32 %0, 16
  br i1 %cmp, label %for.body, label %for.end

for.body:                                         ; preds = %for.cond
  %1 = load ptr, ptr %transform.addr, align 8
  %2 = load i32, ptr %i, align 4
  %idxprom = sext i32 %2 to i64
  %arrayidx = getelementptr inbounds float, ptr %1, i64 %idxprom
  call void @_ZN4pbrt6PrintfIJRfEEEvPKcDpOT_(ptr noundef @.str.14, ptr noundef nonnull align 4 dereferenceable(4) %arrayidx)
  br label %for.inc

for.inc:                                          ; preds = %for.body
  %3 = load i32, ptr %i, align 4
  %inc = add nsw i32 %3, 1
  store i32 %inc, ptr %i, align 4
  br label %for.cond, !llvm.loop !26

lpad:                                             ; preds = %entry
  %4 = landingpad { ptr, i32 }
          cleanup
  %5 = extractvalue { ptr, i32 } %4, 0
  store ptr %5, ptr %exn.slot, align 8
  %6 = extractvalue { ptr, i32 } %4, 1
  store i32 %6, ptr %ehselector.slot, align 4
  call void @_ZNSt7__cxx1112basic_stringIcSt11char_traitsIcESaIcEED1Ev(ptr noundef nonnull align 8 dereferenceable(32) %ref.tmp) #5
  br label %eh.resume

for.end:                                          ; preds = %for.cond
  call void @_ZN4pbrt6PrintfIJEEEvPKcDpOT_(ptr noundef @.str.94)
  ret void

eh.resume:                                        ; preds = %lpad
  %exn = load ptr, ptr %exn.slot, align 8
  %sel = load i32, ptr %ehselector.slot, align 4
  %lpad.val = insertvalue { ptr, i32 } poison, ptr %exn, 0
  %lpad.val2 = insertvalue { ptr, i32 } %lpad.val, i32 %sel, 1
  resume { ptr, i32 } %lpad.val2
}